; Function Attrs: mustprogress uwtable
define void @_ZN7memif_t11write_int32Em13target_endianIiE(ptr noundef nonnull align 8 dereferenceable(16) %0, i64 noundef %1, i32 %2) unnamed_addr #0 align 2 personality ptr @__gxx_personality_v0 {
  %4 = alloca %class.target_endian.8, align 4
  store i32 %2, ptr %4, align 4
  %5 = and i64 %1, 3
  %.not = icmp eq i64 %5, 0
  br i1 %.not, label %11, label %6

6:                                                ; preds = %3
  %7 = tail call ptr @__cxa_allocate_exception(i64 16) #9
  invoke void @_ZNSt13runtime_errorC1EPKc(ptr noundef nonnull align 8 dereferenceable(16) %7, ptr noundef nonnull @.str)
          to label %8 unwind label %9

8:                                                ; preds = %6
  tail call void @__cxa_throw(ptr nonnull %7, ptr nonnull @_ZTISt13runtime_error, ptr nonnull @_ZNSt13runtime_errorD1Ev) #10
  unreachable

9:                                                ; preds = %6
  %10 = landingpad { ptr, i32 }
          cleanup
  tail call void @__cxa_free_exception(ptr nonnull %7) #9
  resume { ptr, i32 } %10

11:                                               ; preds = %3
  %12 = load ptr, ptr %0, align 8, !tbaa !9
  %13 = getelementptr inbounds nuw i8, ptr %12, i64 24
  %14 = load ptr, ptr %13, align 8
  call void %14(ptr noundef nonnull align 8 dereferenceable(16) %0, i64 noundef %1, i64 noundef 4, ptr noundef nonnull %4)
  ret void
}